; Function Attrs: nounwind sspstrong uwtable
define internal noundef i64 @rb_hash_to_a(i64 noundef %0) #0 {
  %2 = inttoptr i64 %0 to ptr
  %3 = load i64, ptr %2, align 8, !tbaa !11
  %4 = and i64 %3, 32768
  %.not.i.i = icmp eq i64 %4, 0
  br i1 %.not.i.i, label %5, label %8

5:                                                ; preds = %1
  %6 = lshr i64 %3, 16
  %7 = and i64 %6, 15
  br label %RHASH_SIZE.exit

8:                                                ; preds = %1
  %9 = add i64 %0, 24
  %10 = inttoptr i64 %9 to ptr
  %11 = getelementptr inbounds nuw i8, ptr %10, i64 16
  %12 = load i64, ptr %11, align 8, !tbaa !49
  br label %RHASH_SIZE.exit

RHASH_SIZE.exit:                                  ; preds = %5, %8
  %.0.i = phi i64 [ %7, %5 ], [ %12, %8 ]
  %13 = tail call i64 @rb_ary_new_capa(i64 noundef %.0.i) #28
  tail call void @rb_hash_foreach(i64 noundef %0, ptr noundef @to_a_i, i64 noundef %13)
  ret i64 %13
}